; Function Attrs: nounwind sspstrong uwtable
define dso_local ptr @rb_id2name(i64 noundef %0) local_unnamed_addr #0 {
  %2 = tail call fastcc i64 @lookup_id_str(i64 noundef %0)
  %.not = icmp eq i64 %2, 0
  br i1 %.not, label %RSTRING_PTR.exit, label %3

3:                                                ; preds = %1
  %4 = inttoptr i64 %2 to ptr
  %5 = load i64, ptr %4, align 8, !tbaa !26, !noalias !72
  %6 = and i64 %5, 8192
  %.not.i.i = icmp eq i64 %6, 0
  %7 = getelementptr inbounds nuw i8, ptr %4, i64 24
  br i1 %.not.i.i, label %RSTRING_PTR.exit, label %8

8:                                                ; preds = %3
  %.sroa.2.0.copyload.i = load ptr, ptr %7, align 8
  br label %RSTRING_PTR.exit

RSTRING_PTR.exit:                                 ; preds = %8, %3, %1
  %.0 = phi ptr [ null, %1 ], [ %.sroa.2.0.copyload.i, %8 ], [ %7, %3 ]
  ret ptr %.0
}